target datalayout = "e-m:e-p270:32:32-p271:32:32-p272:64:64-i64:64-i128:128-f80:128-n8:16:32:64-S128"
target triple = "x86_64-unknown-linux-gnu"

%"class.icu_75::Normalizer2DataBuilder" = type <{ %"class.icu_75::Norms", i32, i32, i32, [20 x i32], [4 x i8], ptr, i32, [4 x i8], %"class.icu_75::UnicodeString", [256 x i8], [4 x i8], [4 x i8] }>
%"class.icu_75::Norms" = type { %"class.icu_75::UnicodeSet", %"class.icu_75::UnicodeSet", ptr, ptr, ptr }
%"class.icu_75::UnicodeSet" = type <{ %"class.icu_75::UnicodeFilter", ptr, i32, i32, i8, [7 x i8], ptr, ptr, i32, [4 x i8], ptr, i32, [4 x i8], ptr, ptr, [25 x i32], [4 x i8] }>
%"class.icu_75::UnicodeFilter" = type { %"class.icu_75::UnicodeFunctor", %"class.icu_75::UnicodeMatcher" }
%"class.icu_75::UnicodeFunctor" = type { %"class.icu_75::UObject" }
%"class.icu_75::UObject" = type { ptr }
%"class.icu_75::UnicodeMatcher" = type { ptr }
%"class.icu_75::UnicodeString" = type { %"class.icu_75::Replaceable", %"union.icu_75::UnicodeString::StackBufferOrFields" }
%"class.icu_75::Replaceable" = type { %"class.icu_75::UObject" }
%"union.icu_75::UnicodeString::StackBufferOrFields" = type { %struct.anon.0, [32 x i8] }
%struct.anon.0 = type { i16, i32, i32, ptr }
%"struct.icu_75::Norm" = type { ptr, ptr, i32, i32, i32, ptr, i8, i8, i8, i8, i8, i8, i32, i32, ptr }

@stderr = external global ptr, align 8
@.str.1 = private unnamed_addr constant [89 x i8] c"error in gennorm2 phase %d: not permitted to override mapping for U+%04lX from phase %d\0A\00", align 1

; Function Attrs: mustprogress uwtable
define dso_local noundef ptr @_ZN6icu_7522Normalizer2DataBuilder19checkNormForMappingEPNS_4NormEi(ptr noundef nonnull align 8 dereferenceable(860) %this, ptr noundef %p, i32 noundef %c) #1 align 2 {
entry:
  %this.addr = alloca ptr, align 8
  %p.addr = alloca ptr, align 8
  %c.addr = alloca i32, align 4
  store ptr %this, ptr %this.addr, align 8
  store ptr %p, ptr %p.addr, align 8
  store i32 %c, ptr %c.addr, align 4
  %this1 = load ptr, ptr %this.addr, align 8
  %0 = load ptr, ptr %p.addr, align 8
  %cmp = icmp ne ptr %0, null
  br i1 %cmp, label %if.then, label %if.end15

if.then:                                          ; preds = %entry
  %1 = load ptr, ptr %p.addr, align 8
  %mappingType = getelementptr inbounds %"struct.icu_75::Norm", ptr %1, i32 0, i32 4
  %2 = load i32, ptr %mappingType, align 8
  %cmp2 = icmp ne i32 %2, 0
  br i1 %cmp2, label %if.then3, label %if.end12

if.then3:                                         ; preds = %if.then
  %overrideHandling = getelementptr inbounds %"class.icu_75::Normalizer2DataBuilder", ptr %this1, i32 0, i32 2
  %3 = load i32, ptr %overrideHandling, align 4
  %cmp4 = icmp eq i32 %3, 0
  br i1 %cmp4, label %if.then8, label %lor.lhs.false

lor.lhs.false:                                    ; preds = %if.then3
  %overrideHandling5 = getelementptr inbounds %"class.icu_75::Normalizer2DataBuilder", ptr %this1, i32 0, i32 2
  %4 = load i32, ptr %overrideHandling5, align 4
  %cmp6 = icmp eq i32 %4, 2
  br i1 %cmp6, label %land.lhs.true, label %if.end

land.lhs.true:                                    ; preds = %lor.lhs.false
  %5 = load ptr, ptr %p.addr, align 8
  %mappingPhase = getelementptr inbounds %"struct.icu_75::Norm", ptr %5, i32 0, i32 3
  %6 = load i32, ptr %mappingPhase, align 4
  %phase = getelementptr inbounds %"class.icu_75::Normalizer2DataBuilder", ptr %this1, i32 0, i32 1
  %7 = load i32, ptr %phase, align 8
  %cmp7 = icmp eq i32 %6, %7
  br i1 %cmp7, label %if.then8, label %if.end

if.then8:                                         ; preds = %land.lhs.true, %if.then3
  %8 = load ptr, ptr @stderr, align 8
  %phase9 = getelementptr inbounds %"class.icu_75::Normalizer2DataBuilder", ptr %this1, i32 0, i32 1
  %9 = load i32, ptr %phase9, align 8
  %10 = load i32, ptr %c.addr, align 4
  %conv = sext i32 %10 to i64
  %11 = load ptr, ptr %p.addr, align 8
  %mappingPhase10 = getelementptr inbounds %"struct.icu_75::Norm", ptr %11, i32 0, i32 3
  %12 = load i32, ptr %mappingPhase10, align 4
  %call = call i32 (ptr, ptr, ...) @fprintf(ptr noundef %8, ptr noundef @.str.1, i32 noundef %9, i64 noundef %conv, i32 noundef %12)
  call void @exit(i32 noundef 3) #14
  unreachable

if.end:                                           ; preds = %land.lhs.true, %lor.lhs.false
  %13 = load ptr, ptr %p.addr, align 8
  %mapping = getelementptr inbounds %"struct.icu_75::Norm", ptr %13, i32 0, i32 0
  %14 = load ptr, ptr %mapping, align 8
  %isnull = icmp eq ptr %14, null
  br i1 %isnull, label %delete.end, label %delete.notnull

delete.notnull:                                   ; preds = %if.end
  %vtable = load ptr, ptr %14, align 8
  %vfn = getelementptr inbounds ptr, ptr %vtable, i64 1
  %15 = load ptr, ptr %vfn, align 8
  call void %15(ptr noundef nonnull align 8 dereferenceable(64) %14) #12
  br label %delete.end

delete.end:                                       ; preds = %delete.notnull, %if.end
  %16 = load ptr, ptr %p.addr, align 8
  %mapping11 = getelementptr inbounds %"struct.icu_75::Norm", ptr %16, i32 0, i32 0
  store ptr null, ptr %mapping11, align 8
  br label %if.end12

if.end12:                                         ; preds = %delete.end, %if.then
  %phase13 = getelementptr inbounds %"class.icu_75::Normalizer2DataBuilder", ptr %this1, i32 0, i32 1
  %17 = load i32, ptr %phase13, align 8
  %18 = load ptr, ptr %p.addr, align 8
  %mappingPhase14 = getelementptr inbounds %"struct.icu_75::Norm", ptr %18, i32 0, i32 3
  store i32 %17, ptr %mappingPhase14, align 4
  br label %if.end15

if.end15:                                         ; preds = %if.end12, %entry
  %19 = load ptr, ptr %p.addr, align 8
  ret ptr %19
}