; Function Attrs: mustprogress uwtable
define dso_local noundef ptr @_ZN6icu_7522Normalizer2DataBuilder19checkNormForMappingEPNS_4NormEi(ptr nocapture noundef nonnull readonly align 8 dereferenceable(860) %this, ptr noundef returned %p, i32 noundef %c) local_unnamed_addr #1 align 2 {
entry:
  %cmp.not = icmp eq ptr %p, null
  br i1 %cmp.not, label %if.end15, label %if.then

if.then:                                          ; preds = %entry
  %mappingType = getelementptr inbounds i8, ptr %p, i64 24
  %0 = load i32, ptr %mappingType, align 8
  %cmp2.not = icmp eq i32 %0, 0
  br i1 %cmp2.not, label %if.end12, label %if.then3

if.then3:                                         ; preds = %if.then
  %overrideHandling = getelementptr inbounds i8, ptr %this, i64 428
  %1 = load i32, ptr %overrideHandling, align 4
  switch i32 %1, label %if.end [
    i32 0, label %if.then3.if.then8_crit_edge
    i32 2, label %land.lhs.true
  ]

if.then3.if.then8_crit_edge:                      ; preds = %if.then3
  %phase9.phi.trans.insert = getelementptr inbounds i8, ptr %this, i64 424
  %.pre = load i32, ptr %phase9.phi.trans.insert, align 8
  %mappingPhase10.phi.trans.insert = getelementptr inbounds i8, ptr %p, i64 20
  %.pre9 = load i32, ptr %mappingPhase10.phi.trans.insert, align 4
  br label %if.then8

land.lhs.true:                                    ; preds = %if.then3
  %mappingPhase = getelementptr inbounds i8, ptr %p, i64 20
  %2 = load i32, ptr %mappingPhase, align 4
  %phase = getelementptr inbounds i8, ptr %this, i64 424
  %3 = load i32, ptr %phase, align 8
  %cmp7 = icmp eq i32 %2, %3
  br i1 %cmp7, label %if.then8, label %if.end

if.then8:                                         ; preds = %if.then3.if.then8_crit_edge, %land.lhs.true
  %4 = phi i32 [ %.pre9, %if.then3.if.then8_crit_edge ], [ %2, %land.lhs.true ]
  %5 = phi i32 [ %.pre, %if.then3.if.then8_crit_edge ], [ %2, %land.lhs.true ]
  %6 = load ptr, ptr @stderr, align 8
  %conv = sext i32 %c to i64
  %call = tail call i32 (ptr, ptr, ...) @fprintf(ptr noundef %6, ptr noundef nonnull @.str.1, i32 noundef %5, i64 noundef %conv, i32 noundef %4) #21
  tail call void @exit(i32 noundef 3) #19
  unreachable

if.end:                                           ; preds = %if.then3, %land.lhs.true
  %7 = load ptr, ptr %p, align 8
  %isnull = icmp eq ptr %7, null
  br i1 %isnull, label %delete.end, label %delete.notnull

delete.notnull:                                   ; preds = %if.end
  %vtable = load ptr, ptr %7, align 8
  %vfn = getelementptr inbounds i8, ptr %vtable, i64 8
  %8 = load ptr, ptr %vfn, align 8
  tail call void %8(ptr noundef nonnull align 8 dereferenceable(64) %7) #17
  br label %delete.end

delete.end:                                       ; preds = %delete.notnull, %if.end
  store ptr null, ptr %p, align 8
  br label %if.end12

if.end12:                                         ; preds = %delete.end, %if.then
  %phase13 = getelementptr inbounds i8, ptr %this, i64 424
  %9 = load i32, ptr %phase13, align 8
  %mappingPhase14 = getelementptr inbounds i8, ptr %p, i64 20
  store i32 %9, ptr %mappingPhase14, align 4
  br label %if.end15

if.end15:                                         ; preds = %if.end12, %entry
  ret ptr %p
}